target datalayout = "e-m:e-p270:32:32-p271:32:32-p272:64:64-i64:64-i128:128-f80:128-n8:16:32:64-S128"
target triple = "x86_64-pc-linux-gnu"

%struct.re_registers = type { i32, i32, ptr, ptr }
%struct.RMatch = type { %struct.RBasic, i64, i64 }
%struct.RBasic = type { i64, i64 }
%struct.rb_matchext_struct = type { %struct.re_registers, ptr, i32 }

@rb_eTypeError = external global i64, align 8
@.str.76 = private unnamed_addr constant [24 x i8] c"uninitialized MatchData\00", align 1

; Function Attrs: inlinehint nounwind sspstrong willreturn memory(read) uwtable
define internal ptr @RMATCH_REGS(i64 noundef %0) #8 {
  %2 = alloca i64, align 8
  store i64 %0, ptr %2, align 8, !tbaa !11
  %3 = load i64, ptr %2, align 8, !tbaa !11
  %4 = inttoptr i64 %3 to ptr
  %5 = getelementptr i8, ptr %4, i64 32
  %6 = getelementptr inbounds nuw %struct.rb_matchext_struct, ptr %5, i32 0, i32 0
  ret ptr %6
}

; Function Attrs: nounwind sspstrong uwtable
define internal i64 @match_check(i64 noundef %0) #0 {
  %2 = alloca i64, align 8
  store i64 %0, ptr %2, align 8, !tbaa !11
  %3 = load i64, ptr %2, align 8, !tbaa !11
  %4 = inttoptr i64 %3 to ptr
  %5 = getelementptr inbounds nuw %struct.RMatch, ptr %4, i32 0, i32 2
  %6 = load i64, ptr %5, align 8, !tbaa !37
  %7 = icmp ne i64 %6, 0
  br i1 %7, label %10, label %8

8:                                                ; preds = %1
  %9 = load i64, ptr @rb_eTypeError, align 8, !tbaa !11
  call void (i64, ptr, ...) @rb_raise(i64 noundef %9, ptr noundef @.str.76) #30
  unreachable

10:                                               ; preds = %1
  %11 = load i64, ptr %2, align 8, !tbaa !11
  ret i64 %11
}

; Function Attrs: nounwind sspstrong uwtable
define internal i64 @match_array(i64 noundef %0, i32 noundef %1) #0 {
  %3 = alloca i64, align 8
  %4 = alloca i32, align 4
  %5 = alloca ptr, align 8
  %6 = alloca i64, align 8
  %7 = alloca i64, align 8
  %8 = alloca i32, align 4
  %9 = alloca i64, align 8
  store i64 %0, ptr %3, align 8, !tbaa !11
  store i32 %1, ptr %4, align 4, !tbaa !16
  call void @llvm.lifetime.start.p0(i64 8, ptr %5) #28
  call void @llvm.lifetime.start.p0(i64 8, ptr %6) #28
  call void @llvm.lifetime.start.p0(i64 8, ptr %7) #28
  call void @llvm.lifetime.start.p0(i64 4, ptr %8) #28
  %10 = load i64, ptr %3, align 8, !tbaa !11
  %11 = call i64 @match_check(i64 noundef %10)
  %12 = load i64, ptr %3, align 8, !tbaa !11
  %13 = call ptr @RMATCH_REGS(i64 noundef %12) #29
  store ptr %13, ptr %5, align 8, !tbaa !32
  %14 = load ptr, ptr %5, align 8, !tbaa !32
  %15 = getelementptr inbounds nuw %struct.re_registers, ptr %14, i32 0, i32 1
  %16 = load i32, ptr %15, align 4, !tbaa !40
  %17 = sext i32 %16 to i64
  %18 = call i64 @rb_ary_new_capa(i64 noundef %17)
  store i64 %18, ptr %6, align 8, !tbaa !11
  %19 = load i64, ptr %3, align 8, !tbaa !11
  %20 = inttoptr i64 %19 to ptr
  %21 = getelementptr inbounds nuw %struct.RMatch, ptr %20, i32 0, i32 1
  %22 = load i64, ptr %21, align 8, !tbaa !43
  store i64 %22, ptr %7, align 8, !tbaa !11
  %23 = load i32, ptr %4, align 4, !tbaa !16
  store i32 %23, ptr %8, align 4, !tbaa !16
  br label %24

24:                                               ; preds = %71, %2
  %25 = load i32, ptr %8, align 4, !tbaa !16
  %26 = load ptr, ptr %5, align 8, !tbaa !32
  %27 = getelementptr inbounds nuw %struct.re_registers, ptr %26, i32 0, i32 1
  %28 = load i32, ptr %27, align 4, !tbaa !40
  %29 = icmp slt i32 %25, %28
  br i1 %29, label %30, label %74

30:                                               ; preds = %24
  %31 = load ptr, ptr %5, align 8, !tbaa !32
  %32 = getelementptr inbounds nuw %struct.re_registers, ptr %31, i32 0, i32 2
  %33 = load ptr, ptr %32, align 8, !tbaa !80
  %34 = load i32, ptr %8, align 4, !tbaa !16
  %35 = sext i32 %34 to i64
  %36 = getelementptr i64, ptr %33, i64 %35
  %37 = load i64, ptr %36, align 8, !tbaa !11
  %38 = icmp eq i64 %37, -1
  br i1 %38, label %39, label %42

39:                                               ; preds = %30
  %40 = load i64, ptr %6, align 8, !tbaa !11
  %41 = call i64 @rb_ary_push(i64 noundef %40, i64 noundef 4)
  br label %70

42:                                               ; preds = %30
  call void @llvm.lifetime.start.p0(i64 8, ptr %9) #28
  %43 = load i64, ptr %7, align 8, !tbaa !11
  %44 = load ptr, ptr %5, align 8, !tbaa !32
  %45 = getelementptr inbounds nuw %struct.re_registers, ptr %44, i32 0, i32 2
  %46 = load ptr, ptr %45, align 8, !tbaa !80
  %47 = load i32, ptr %8, align 4, !tbaa !16
  %48 = sext i32 %47 to i64
  %49 = getelementptr i64, ptr %46, i64 %48
  %50 = load i64, ptr %49, align 8, !tbaa !11
  %51 = load ptr, ptr %5, align 8, !tbaa !32
  %52 = getelementptr inbounds nuw %struct.re_registers, ptr %51, i32 0, i32 3
  %53 = load ptr, ptr %52, align 8, !tbaa !81
  %54 = load i32, ptr %8, align 4, !tbaa !16
  %55 = sext i32 %54 to i64
  %56 = getelementptr i64, ptr %53, i64 %55
  %57 = load i64, ptr %56, align 8, !tbaa !11
  %58 = load ptr, ptr %5, align 8, !tbaa !32
  %59 = getelementptr inbounds nuw %struct.re_registers, ptr %58, i32 0, i32 2
  %60 = load ptr, ptr %59, align 8, !tbaa !80
  %61 = load i32, ptr %8, align 4, !tbaa !16
  %62 = sext i32 %61 to i64
  %63 = getelementptr i64, ptr %60, i64 %62
  %64 = load i64, ptr %63, align 8, !tbaa !11
  %65 = sub i64 %57, %64
  %66 = call i64 @rb_str_subseq(i64 noundef %43, i64 noundef %50, i64 noundef %65)
  store i64 %66, ptr %9, align 8, !tbaa !11
  %67 = load i64, ptr %6, align 8, !tbaa !11
  %68 = load i64, ptr %9, align 8, !tbaa !11
  %69 = call i64 @rb_ary_push(i64 noundef %67, i64 noundef %68)
  call void @llvm.lifetime.end.p0(i64 8, ptr %9) #28
  br label %70

70:                                               ; preds = %42, %39
  br label %71

71:                                               ; preds = %70
  %72 = load i32, ptr %8, align 4, !tbaa !16
  %73 = add i32 %72, 1
  store i32 %73, ptr %8, align 4, !tbaa !16
  br label %24, !llvm.loop !173

74:                                               ; preds = %24
  %75 = load i64, ptr %6, align 8, !tbaa !11
  call void @llvm.lifetime.end.p0(i64 4, ptr %8) #28
  call void @llvm.lifetime.end.p0(i64 8, ptr %7) #28
  call void @llvm.lifetime.end.p0(i64 8, ptr %6) #28
  call void @llvm.lifetime.end.p0(i64 8, ptr %5) #28
  ret i64 %75
}

; Function Attrs: nounwind sspstrong uwtable
define internal i64 @match_captures(i64 noundef %0) #0 {
  %2 = alloca i64, align 8
  store i64 %0, ptr %2, align 8, !tbaa !11
  %3 = load i64, ptr %2, align 8, !tbaa !11
  %4 = call i64 @match_array(i64 noundef %3, i32 noundef 1)
  ret i64 %4
}