; Function Attrs: nounwind sspstrong uwtable
define internal i64 @match_captures(i64 noundef %0) #2 {
  %2 = inttoptr i64 %0 to ptr
  %3 = getelementptr inbounds nuw i8, ptr %2, i64 24
  %4 = load i64, ptr %3, align 8, !tbaa !31
  %.not.i.i = icmp eq i64 %4, 0
  br i1 %.not.i.i, label %5, label %match_check.exit.i

5:                                                ; preds = %1
  %6 = load i64, ptr @rb_eTypeError, align 8, !tbaa !18
  tail call void (i64, ptr, ...) @rb_raise(i64 noundef %6, ptr noundef nonnull @.str.76) #30
  unreachable

match_check.exit.i:                               ; preds = %1
  %7 = getelementptr i8, ptr %2, i64 36
  %8 = load i32, ptr %7, align 4, !tbaa !40
  %9 = sext i32 %8 to i64
  %10 = tail call i64 @rb_ary_new_capa(i64 noundef %9) #29
  %11 = getelementptr inbounds nuw i8, ptr %2, i64 16
  %12 = load i64, ptr %11, align 8, !tbaa !94
  %13 = load i32, ptr %7, align 4, !tbaa !40
  %14 = icmp sgt i32 %13, 1
  br i1 %14, label %.lr.ph.i, label %match_array.exit

.lr.ph.i:                                         ; preds = %match_check.exit.i
  %15 = getelementptr i8, ptr %2, i64 40
  %16 = getelementptr i8, ptr %2, i64 48
  br label %17

17:                                               ; preds = %28, %.lr.ph.i
  %indvars.iv.i = phi i64 [ 1, %.lr.ph.i ], [ %indvars.iv.next.i, %28 ]
  %18 = load ptr, ptr %15, align 8, !tbaa !92
  %19 = getelementptr i64, ptr %18, i64 %indvars.iv.i
  %20 = load i64, ptr %19, align 8, !tbaa !18
  %21 = icmp eq i64 %20, -1
  br i1 %21, label %28, label %22

22:                                               ; preds = %17
  %23 = load ptr, ptr %16, align 8, !tbaa !93
  %24 = getelementptr i64, ptr %23, i64 %indvars.iv.i
  %25 = load i64, ptr %24, align 8, !tbaa !18
  %26 = sub i64 %25, %20
  %27 = tail call i64 @rb_str_subseq(i64 noundef %12, i64 noundef %20, i64 noundef %26) #29
  br label %28

28:                                               ; preds = %22, %17
  %.sink.i = phi i64 [ %27, %22 ], [ 4, %17 ]
  %29 = tail call i64 @rb_ary_push(i64 noundef %10, i64 noundef %.sink.i) #29
  %indvars.iv.next.i = add nuw nsw i64 %indvars.iv.i, 1
  %30 = load i32, ptr %7, align 4, !tbaa !40
  %31 = trunc nuw i64 %indvars.iv.next.i to i32
  %32 = icmp sgt i32 %30, %31
  br i1 %32, label %17, label %match_array.exit, !llvm.loop !233

match_array.exit:                                 ; preds = %28, %match_check.exit.i
  ret i64 %10
}